target datalayout = "e-m:e-p270:32:32-p271:32:32-p272:64:64-i64:64-i128:128-f80:128-n8:16:32:64-S128"
target triple = "x86_64-pc-linux-gnu"

%struct.semholder_s = type { ptr, ptr, ptr, ptr, i16 }
%struct.dq_queue_s = type { ptr, ptr }
%struct.sem_s = type { i16, i8, %struct.dq_queue_s, ptr }
%struct.tcb_s = type { ptr, ptr, ptr, i32, i8, i8, ptr, %union.entry_u, i8, i8, i8, ptr, i16, i16, i16, %struct.wdog_s, i64, ptr, ptr, ptr, %struct.sigset_s, %struct.sigset_s, %struct.sq_queue_s, %struct.sq_queue_s, %struct.siginfo, ptr, %struct.xcptcontext, [32 x i8] }
%union.entry_u = type { ptr }
%struct.wdog_s = type { ptr, i64, ptr, i64 }
%struct.sigset_s = type { [2 x i32] }
%struct.sq_queue_s = type { ptr, ptr }
%struct.siginfo = type { i8, i8, i8, %union.sigval, i32, i32, ptr }
%union.sigval = type { ptr }
%struct.xcptcontext = type { ptr, i64, i64, i64, [90 x i64] }

@g_freeholders = internal global ptr null, align 8

; Function Attrs: nounwind uwtable
define internal ptr @nxsem_allocholder(ptr noundef %0, ptr noundef %1) #0 {
  %3 = alloca ptr, align 8
  %4 = alloca ptr, align 8
  %5 = alloca ptr, align 8
  store ptr %0, ptr %3, align 8
  store ptr %1, ptr %4, align 8
  %6 = load ptr, ptr @g_freeholders, align 8
  store ptr %6, ptr %5, align 8
  %7 = load ptr, ptr %5, align 8
  %8 = icmp ne ptr %7, null
  br i1 %8, label %9, label %21

9:                                                ; preds = %2
  %10 = load ptr, ptr %5, align 8
  %11 = getelementptr inbounds %struct.semholder_s, ptr %10, i32 0, i32 0
  %12 = load ptr, ptr %11, align 8
  store ptr %12, ptr @g_freeholders, align 8
  %13 = load ptr, ptr %3, align 8
  %14 = getelementptr inbounds %struct.sem_s, ptr %13, i32 0, i32 3
  %15 = load ptr, ptr %14, align 8
  %16 = load ptr, ptr %5, align 8
  %17 = getelementptr inbounds %struct.semholder_s, ptr %16, i32 0, i32 0
  store ptr %15, ptr %17, align 8
  %18 = load ptr, ptr %5, align 8
  %19 = load ptr, ptr %3, align 8
  %20 = getelementptr inbounds %struct.sem_s, ptr %19, i32 0, i32 3
  store ptr %18, ptr %20, align 8
  br label %27

21:                                               ; preds = %2
  br label %22

22:                                               ; preds = %21
  br label %23

23:                                               ; preds = %22
  br label %24

24:                                               ; preds = %25, %23
  br label %25

25:                                               ; preds = %24
  br i1 true, label %24, label %26

26:                                               ; preds = %25
  br label %27

27:                                               ; preds = %26, %9
  %28 = load ptr, ptr %3, align 8
  %29 = load ptr, ptr %5, align 8
  %30 = getelementptr inbounds %struct.semholder_s, ptr %29, i32 0, i32 2
  store ptr %28, ptr %30, align 8
  %31 = load ptr, ptr %4, align 8
  %32 = load ptr, ptr %5, align 8
  %33 = getelementptr inbounds %struct.semholder_s, ptr %32, i32 0, i32 3
  store ptr %31, ptr %33, align 8
  %34 = load ptr, ptr %5, align 8
  %35 = getelementptr inbounds %struct.semholder_s, ptr %34, i32 0, i32 4
  store i16 0, ptr %35, align 8
  %36 = load ptr, ptr %4, align 8
  %37 = getelementptr inbounds %struct.tcb_s, ptr %36, i32 0, i32 11
  %38 = load ptr, ptr %37, align 8
  %39 = load ptr, ptr %5, align 8
  %40 = getelementptr inbounds %struct.semholder_s, ptr %39, i32 0, i32 1
  store ptr %38, ptr %40, align 8
  %41 = load ptr, ptr %5, align 8
  %42 = load ptr, ptr %4, align 8
  %43 = getelementptr inbounds %struct.tcb_s, ptr %42, i32 0, i32 11
  store ptr %41, ptr %43, align 8
  %44 = load ptr, ptr %5, align 8
  ret ptr %44
}

; Function Attrs: nounwind uwtable
define internal ptr @nxsem_findholder(ptr noundef %0, ptr noundef %1) #0 {
  %3 = alloca ptr, align 8
  %4 = alloca ptr, align 8
  %5 = alloca ptr, align 8
  %6 = alloca ptr, align 8
  store ptr %0, ptr %4, align 8
  store ptr %1, ptr %5, align 8
  %7 = load ptr, ptr %4, align 8
  %8 = getelementptr inbounds %struct.sem_s, ptr %7, i32 0, i32 3
  %9 = load ptr, ptr %8, align 8
  store ptr %9, ptr %6, align 8
  br label %10

10:                                               ; preds = %22, %2
  %11 = load ptr, ptr %6, align 8
  %12 = icmp ne ptr %11, null
  br i1 %12, label %13, label %26

13:                                               ; preds = %10
  %14 = load ptr, ptr %6, align 8
  %15 = getelementptr inbounds %struct.semholder_s, ptr %14, i32 0, i32 3
  %16 = load ptr, ptr %15, align 8
  %17 = load ptr, ptr %5, align 8
  %18 = icmp eq ptr %16, %17
  br i1 %18, label %19, label %21

19:                                               ; preds = %13
  %20 = load ptr, ptr %6, align 8
  store ptr %20, ptr %3, align 8
  br label %27

21:                                               ; preds = %13
  br label %22

22:                                               ; preds = %21
  %23 = load ptr, ptr %6, align 8
  %24 = getelementptr inbounds %struct.semholder_s, ptr %23, i32 0, i32 0
  %25 = load ptr, ptr %24, align 8
  store ptr %25, ptr %6, align 8
  br label %10, !llvm.loop !13

26:                                               ; preds = %10
  store ptr null, ptr %3, align 8
  br label %27

27:                                               ; preds = %26, %19
  %28 = load ptr, ptr %3, align 8
  ret ptr %28
}

; Function Attrs: nounwind uwtable
define internal ptr @nxsem_findorallocateholder(ptr noundef %0, ptr noundef %1) #0 {
  %3 = alloca ptr, align 8
  %4 = alloca ptr, align 8
  %5 = alloca ptr, align 8
  store ptr %0, ptr %3, align 8
  store ptr %1, ptr %4, align 8
  %6 = load ptr, ptr %3, align 8
  %7 = load ptr, ptr %4, align 8
  %8 = call ptr @nxsem_findholder(ptr noundef %6, ptr noundef %7)
  store ptr %8, ptr %5, align 8
  %9 = load ptr, ptr %5, align 8
  %10 = icmp eq ptr %9, null
  br i1 %10, label %11, label %15

11:                                               ; preds = %2
  %12 = load ptr, ptr %3, align 8
  %13 = load ptr, ptr %4, align 8
  %14 = call ptr @nxsem_allocholder(ptr noundef %12, ptr noundef %13)
  store ptr %14, ptr %5, align 8
  br label %15

15:                                               ; preds = %11, %2
  %16 = load ptr, ptr %5, align 8
  ret ptr %16
}

; Function Attrs: nounwind uwtable
define void @nxsem_add_holder_tcb(ptr noundef %0, ptr noundef %1) #0 {
  %3 = alloca ptr, align 8
  %4 = alloca ptr, align 8
  %5 = alloca ptr, align 8
  %6 = alloca i8, align 1
  store ptr %0, ptr %3, align 8
  store ptr %1, ptr %4, align 8
  %7 = load ptr, ptr %4, align 8
  %8 = getelementptr inbounds %struct.sem_s, ptr %7, i32 0, i32 1
  %9 = load i8, ptr %8, align 2
  %10 = zext i8 %9 to i32
  %11 = and i32 %10, 3
  %12 = trunc i32 %11 to i8
  store i8 %12, ptr %6, align 1
  %13 = load ptr, ptr %3, align 8
  %14 = getelementptr inbounds %struct.tcb_s, ptr %13, i32 0, i32 3
  %15 = load i32, ptr %14, align 8
  %16 = icmp slt i32 %15, 1
  br i1 %16, label %36, label %17

17:                                               ; preds = %2
  %18 = load i8, ptr %6, align 1
  %19 = zext i8 %18 to i32
  %20 = icmp eq i32 %19, 1
  br i1 %20, label %21, label %36

21:                                               ; preds = %17
  %22 = load ptr, ptr %4, align 8
  %23 = load ptr, ptr %3, align 8
  %24 = call ptr @nxsem_findorallocateholder(ptr noundef %22, ptr noundef %23)
  store ptr %24, ptr %5, align 8
  %25 = load ptr, ptr %5, align 8
  %26 = getelementptr inbounds %struct.semholder_s, ptr %25, i32 0, i32 4
  %27 = load i16, ptr %26, align 8
  %28 = sext i16 %27 to i32
  %29 = icmp slt i32 %28, 32767
  br i1 %29, label %30, label %35

30:                                               ; preds = %21
  %31 = load ptr, ptr %5, align 8
  %32 = getelementptr inbounds %struct.semholder_s, ptr %31, i32 0, i32 4
  %33 = load i16, ptr %32, align 8
  %34 = add i16 %33, 1
  store i16 %34, ptr %32, align 8
  br label %35

35:                                               ; preds = %30, %21
  br label %36

36:                                               ; preds = %35, %17, %2
  ret void
}