; Function Attrs: nofree norecurse nosync nounwind memory(readwrite, inaccessiblemem: none) uwtable
define void @nxsem_add_holder_tcb(ptr noundef %0, ptr noundef %1) local_unnamed_addr #1 {
  %3 = getelementptr inbounds nuw i8, ptr %1, i64 2
  %4 = load i8, ptr %3, align 2
  %5 = and i8 %4, 3
  %6 = getelementptr inbounds nuw i8, ptr %0, i64 24
  %7 = load i32, ptr %6, align 8
  %8 = icmp sgt i32 %7, 0
  %9 = icmp eq i8 %5, 1
  %or.cond = select i1 %8, i1 %9, i1 false
  br i1 %or.cond, label %10, label %31

10:                                               ; preds = %2
  %11 = getelementptr inbounds nuw i8, ptr %1, i64 24
  br label %12

12:                                               ; preds = %13, %10
  %.0.in.i.i = phi ptr [ %11, %10 ], [ %.0.i.i, %13 ]
  %.0.i.i = load ptr, ptr %.0.in.i.i, align 8
  %.not.i.i = icmp eq ptr %.0.i.i, null
  br i1 %.not.i.i, label %17, label %13

13:                                               ; preds = %12
  %14 = getelementptr inbounds nuw i8, ptr %.0.i.i, i64 24
  %15 = load ptr, ptr %14, align 8
  %16 = icmp eq ptr %15, %0
  br i1 %16, label %nxsem_findorallocateholder.exit, label %12, !llvm.loop !11

17:                                               ; preds = %12
  %18 = load ptr, ptr @g_freeholders, align 8
  %.not.i7.i = icmp eq ptr %18, null
  br i1 %.not.i7.i, label %.preheader.i.i, label %nxsem_allocholder.exit.i

.preheader.i.i:                                   ; preds = %17, %.preheader.i.i
  br label %.preheader.i.i

nxsem_allocholder.exit.i:                         ; preds = %17
  %19 = load ptr, ptr %18, align 8
  store ptr %19, ptr @g_freeholders, align 8
  %20 = load ptr, ptr %11, align 8
  store ptr %20, ptr %18, align 8
  store ptr %18, ptr %11, align 8
  %21 = getelementptr inbounds nuw i8, ptr %18, i64 16
  store ptr %1, ptr %21, align 8
  %22 = getelementptr inbounds nuw i8, ptr %18, i64 24
  store ptr %0, ptr %22, align 8
  %23 = getelementptr inbounds nuw i8, ptr %18, i64 32
  store i16 0, ptr %23, align 8
  %24 = getelementptr inbounds nuw i8, ptr %0, i64 56
  %25 = load ptr, ptr %24, align 8
  %26 = getelementptr inbounds nuw i8, ptr %18, i64 8
  store ptr %25, ptr %26, align 8
  store ptr %18, ptr %24, align 8
  br label %nxsem_findorallocateholder.exit

nxsem_findorallocateholder.exit:                  ; preds = %13, %nxsem_allocholder.exit.i
  %.0.i = phi ptr [ %18, %nxsem_allocholder.exit.i ], [ %.0.i.i, %13 ]
  %27 = getelementptr inbounds nuw i8, ptr %.0.i, i64 32
  %28 = load i16, ptr %27, align 8
  %.not = icmp eq i16 %28, 32767
  br i1 %.not, label %31, label %29

29:                                               ; preds = %nxsem_findorallocateholder.exit
  %30 = add nsw i16 %28, 1
  store i16 %30, ptr %27, align 8
  br label %31

31:                                               ; preds = %nxsem_findorallocateholder.exit, %29, %2
  ret void
}